; Function Attrs: nounwind memory(readwrite, argmem: read) uwtable
define internal fastcc range(i32 0, 2) i32 @arkode_butcher_order6i(ptr noundef readonly captures(address_is_null) %0, ptr noundef readonly captures(address_is_null) %1, ptr noundef readonly captures(address_is_null) %2, ptr noundef readonly captures(address_is_null) %3, ptr noundef readonly captures(address_is_null) %4, ptr noundef readonly captures(address_is_null) %5, i32 noundef %6) unnamed_addr #10 {
  %8 = sext i32 %6 to i64
  %9 = tail call noalias ptr @calloc(i64 noundef %8, i64 noundef 8) #16
  %10 = tail call noalias ptr @calloc(i64 noundef %8, i64 noundef 8) #16
  %11 = icmp eq ptr %4, null
  %12 = icmp eq ptr %5, null
  %or.cond.i = or i1 %11, %12
  %13 = icmp eq ptr %9, null
  %or.cond3.i = or i1 %or.cond.i, %13
  %14 = icmp slt i32 %6, 1
  %or.cond5.i = or i1 %14, %or.cond3.i
  br i1 %or.cond5.i, label %arkode_butcher_vv.exit, label %.preheader.preheader.i

.preheader.preheader.i:                           ; preds = %7
  %wide.trip.count.i = zext nneg i32 %6 to i64
  br label %.preheader.i

.preheader.i:                                     ; preds = %.preheader.i, %.preheader.preheader.i
  %indvars.iv.i = phi i64 [ 0, %.preheader.preheader.i ], [ %indvars.iv.next.i, %.preheader.i ]
  %15 = getelementptr inbounds nuw double, ptr %4, i64 %indvars.iv.i
  %16 = load double, ptr %15, align 8, !tbaa !18
  %17 = getelementptr inbounds nuw double, ptr %5, i64 %indvars.iv.i
  %18 = load double, ptr %17, align 8, !tbaa !18
  %19 = fmul double %16, %18
  %20 = getelementptr inbounds nuw double, ptr %9, i64 %indvars.iv.i
  store double %19, ptr %20, align 8, !tbaa !18
  %indvars.iv.next.i = add nuw nsw i64 %indvars.iv.i, 1
  %exitcond.not.i = icmp eq i64 %indvars.iv.next.i, %wide.trip.count.i
  br i1 %exitcond.not.i, label %21, label %.preheader.i

arkode_butcher_vv.exit:                           ; preds = %7
  tail call void @free(ptr noundef %9) #17
  tail call void @free(ptr noundef %10) #17
  br label %arkode_butcher_dot.exit

21:                                               ; preds = %.preheader.i
  %22 = icmp eq ptr %3, null
  %23 = icmp eq ptr %10, null
  %or.cond3.i36 = or i1 %22, %23
  br i1 %or.cond3.i36, label %arkode_butcher_mv.exit, label %.preheader.us.preheader.i

.preheader.us.preheader.i:                        ; preds = %21
  %24 = shl nuw nsw i64 %wide.trip.count.i, 3
  br label %.preheader.us.i

.preheader.us.i:                                  ; preds = %._crit_edge.us.i, %.preheader.us.preheader.i
  %indvars.iv40.i = phi i64 [ 0, %.preheader.us.preheader.i ], [ %indvars.iv.next41.i, %._crit_edge.us.i ]
  %25 = getelementptr inbounds nuw ptr, ptr %3, i64 %indvars.iv40.i
  %26 = load ptr, ptr %25, align 8, !tbaa !12
  %27 = getelementptr inbounds nuw double, ptr %10, i64 %indvars.iv40.i
  %.promoted.us.i = load double, ptr %27, align 8, !tbaa !18
  br label %28

28:                                               ; preds = %28, %.preheader.us.i
  %indvars.iv.i38 = phi i64 [ 0, %.preheader.us.i ], [ %indvars.iv.next.i39, %28 ]
  %29 = phi double [ %.promoted.us.i, %.preheader.us.i ], [ %34, %28 ]
  %30 = getelementptr inbounds nuw double, ptr %26, i64 %indvars.iv.i38
  %31 = load double, ptr %30, align 8, !tbaa !18
  %32 = getelementptr inbounds nuw double, ptr %9, i64 %indvars.iv.i38
  %33 = load double, ptr %32, align 8, !tbaa !18
  %34 = tail call double @llvm.fmuladd.f64(double %31, double %33, double %29)
  %indvars.iv.next.i39 = add nuw nsw i64 %indvars.iv.i38, 1
  %exitcond.not.i40 = icmp eq i64 %indvars.iv.next.i39, %wide.trip.count.i
  br i1 %exitcond.not.i40, label %._crit_edge.us.i, label %28

._crit_edge.us.i:                                 ; preds = %28
  store double %34, ptr %27, align 8, !tbaa !18
  %indvars.iv.next41.i = add nuw nsw i64 %indvars.iv40.i, 1
  %exitcond44.not.i = icmp eq i64 %indvars.iv.next41.i, %wide.trip.count.i
  br i1 %exitcond44.not.i, label %35, label %.preheader.us.i

arkode_butcher_mv.exit:                           ; preds = %21
  tail call void @free(ptr noundef nonnull %9) #17
  tail call void @free(ptr noundef %10) #17
  br label %arkode_butcher_dot.exit

35:                                               ; preds = %._crit_edge.us.i
  %36 = icmp eq ptr %2, null
  br i1 %36, label %arkode_butcher_mv.exit55, label %.preheader.us.preheader.i44

.preheader.us.preheader.i44:                      ; preds = %35
  tail call void @llvm.memset.p0.i64(ptr nonnull align 8 %9, i8 0, i64 %24, i1 false), !tbaa !18
  br label %.preheader.us.i45

.preheader.us.i45:                                ; preds = %._crit_edge.us.i51, %.preheader.us.preheader.i44
  %indvars.iv40.i46 = phi i64 [ 0, %.preheader.us.preheader.i44 ], [ %indvars.iv.next41.i52, %._crit_edge.us.i51 ]
  %37 = getelementptr inbounds nuw ptr, ptr %2, i64 %indvars.iv40.i46
  %38 = load ptr, ptr %37, align 8, !tbaa !12
  %39 = getelementptr inbounds nuw double, ptr %9, i64 %indvars.iv40.i46
  %.promoted.us.i47 = load double, ptr %39, align 8, !tbaa !18
  br label %40

40:                                               ; preds = %40, %.preheader.us.i45
  %indvars.iv.i48 = phi i64 [ 0, %.preheader.us.i45 ], [ %indvars.iv.next.i49, %40 ]
  %41 = phi double [ %.promoted.us.i47, %.preheader.us.i45 ], [ %46, %40 ]
  %42 = getelementptr inbounds nuw double, ptr %38, i64 %indvars.iv.i48
  %43 = load double, ptr %42, align 8, !tbaa !18
  %44 = getelementptr inbounds nuw double, ptr %10, i64 %indvars.iv.i48
  %45 = load double, ptr %44, align 8, !tbaa !18
  %46 = tail call double @llvm.fmuladd.f64(double %43, double %45, double %41)
  %indvars.iv.next.i49 = add nuw nsw i64 %indvars.iv.i48, 1
  %exitcond.not.i50 = icmp eq i64 %indvars.iv.next.i49, %wide.trip.count.i
  br i1 %exitcond.not.i50, label %._crit_edge.us.i51, label %40

._crit_edge.us.i51:                               ; preds = %40
  store double %46, ptr %39, align 8, !tbaa !18
  %indvars.iv.next41.i52 = add nuw nsw i64 %indvars.iv40.i46, 1
  %exitcond44.not.i53 = icmp eq i64 %indvars.iv.next41.i52, %wide.trip.count.i
  br i1 %exitcond44.not.i53, label %47, label %.preheader.us.i45

arkode_butcher_mv.exit55:                         ; preds = %35
  tail call void @free(ptr noundef nonnull %9) #17
  tail call void @free(ptr noundef nonnull %10) #17
  br label %arkode_butcher_dot.exit

47:                                               ; preds = %._crit_edge.us.i51
  %48 = icmp eq ptr %1, null
  br i1 %48, label %arkode_butcher_vv.exit66, label %.preheader.i61

.preheader.i61:                                   ; preds = %47, %.preheader.i61
  %indvars.iv.i62 = phi i64 [ %indvars.iv.next.i63, %.preheader.i61 ], [ 0, %47 ]
  %49 = getelementptr inbounds nuw double, ptr %1, i64 %indvars.iv.i62
  %50 = load double, ptr %49, align 8, !tbaa !18
  %51 = getelementptr inbounds nuw double, ptr %9, i64 %indvars.iv.i62
  %52 = load double, ptr %51, align 8, !tbaa !18
  %53 = fmul double %50, %52
  %54 = getelementptr inbounds nuw double, ptr %10, i64 %indvars.iv.i62
  store double %53, ptr %54, align 8, !tbaa !18
  %indvars.iv.next.i63 = add nuw nsw i64 %indvars.iv.i62, 1
  %exitcond.not.i64 = icmp eq i64 %indvars.iv.next.i63, %wide.trip.count.i
  br i1 %exitcond.not.i64, label %55, label %.preheader.i61

arkode_butcher_vv.exit66:                         ; preds = %47
  tail call void @free(ptr noundef nonnull %9) #17
  tail call void @free(ptr noundef nonnull %10) #17
  br label %arkode_butcher_dot.exit

55:                                               ; preds = %.preheader.i61
  %56 = icmp eq ptr %0, null
  br i1 %56, label %arkode_butcher_dot.exit, label %.preheader

.preheader:                                       ; preds = %55, %.preheader
  %indvars.iv.i70 = phi i64 [ %indvars.iv.next.i71, %.preheader ], [ 0, %55 ]
  %57 = phi double [ %62, %.preheader ], [ 0.000000e+00, %55 ]
  %58 = getelementptr inbounds nuw double, ptr %0, i64 %indvars.iv.i70
  %59 = load double, ptr %58, align 8, !tbaa !18
  %60 = getelementptr inbounds nuw double, ptr %10, i64 %indvars.iv.i70
  %61 = load double, ptr %60, align 8, !tbaa !18
  %62 = tail call double @llvm.fmuladd.f64(double %59, double %61, double %57)
  %indvars.iv.next.i71 = add nuw nsw i64 %indvars.iv.i70, 1
  %exitcond.not.i72 = icmp eq i64 %indvars.iv.next.i71, %wide.trip.count.i
  br i1 %exitcond.not.i72, label %63, label %.preheader

63:                                               ; preds = %.preheader
  tail call void @free(ptr noundef %9) #17
  tail call void @free(ptr noundef nonnull %10) #17
  %64 = fadd double %62, 0xBF8C71C71C71C71C
  %65 = tail call double @llvm.fabs.f64(double %64)
  %66 = fcmp ule double %65, 0x3E50000000000000
  %67 = zext i1 %66 to i32
  br label %arkode_butcher_dot.exit

arkode_butcher_dot.exit:                          ; preds = %55, %63, %arkode_butcher_vv.exit66, %arkode_butcher_mv.exit55, %arkode_butcher_mv.exit, %arkode_butcher_vv.exit
  %.0 = phi i32 [ 0, %arkode_butcher_vv.exit ], [ 0, %arkode_butcher_mv.exit ], [ 0, %arkode_butcher_mv.exit55 ], [ 0, %arkode_butcher_vv.exit66 ], [ %67, %63 ], [ 0, %55 ]
  ret i32 %.0
}